target datalayout = "e-m:e-p270:32:32-p271:32:32-p272:64:64-i64:64-i128:128-f80:128-n8:16:32:64-S128"
target triple = "x86_64-pc-linux-gnu"

%"class.cv::RBaseStream" = type <{ ptr, i8, [7 x i8], ptr, ptr, ptr, ptr, i32, i32, i8, [7 x i8] }>

; Function Attrs: mustprogress nounwind uwtable
define hidden void @_ZN2cv11RBaseStream7releaseEv(ptr noundef nonnull align 8 dereferenceable(57) %0) unnamed_addr #0 align 2 {
  %2 = alloca ptr, align 8
  store ptr %0, ptr %2, align 8, !tbaa !3
  %3 = load ptr, ptr %2, align 8
  %4 = getelementptr inbounds nuw %"class.cv::RBaseStream", ptr %3, i32 0, i32 1
  %5 = load i8, ptr %4, align 8, !tbaa !16, !range !14, !noundef !15
  %6 = trunc i8 %5 to i1
  br i1 %6, label %7, label %13

7:                                                ; preds = %1
  %8 = getelementptr inbounds nuw %"class.cv::RBaseStream", ptr %3, i32 0, i32 3
  %9 = load ptr, ptr %8, align 8, !tbaa !18
  %10 = icmp eq ptr %9, null
  br i1 %10, label %12, label %11

11:                                               ; preds = %7
  call void @_ZdaPv(ptr noundef %9) #18
  br label %12

12:                                               ; preds = %11, %7
  br label %13

13:                                               ; preds = %12, %1
  %14 = getelementptr inbounds nuw %"class.cv::RBaseStream", ptr %3, i32 0, i32 5
  store ptr null, ptr %14, align 8, !tbaa !20
  %15 = getelementptr inbounds nuw %"class.cv::RBaseStream", ptr %3, i32 0, i32 4
  store ptr null, ptr %15, align 8, !tbaa !19
  %16 = getelementptr inbounds nuw %"class.cv::RBaseStream", ptr %3, i32 0, i32 3
  store ptr null, ptr %16, align 8, !tbaa !18
  %17 = getelementptr inbounds nuw %"class.cv::RBaseStream", ptr %3, i32 0, i32 1
  store i8 0, ptr %17, align 8, !tbaa !16
  ret void
}