; Function Attrs: mustprogress nounwind uwtable
define hidden void @_ZN2cv11RBaseStream7releaseEv(ptr noundef nonnull align 8 captures(none) dereferenceable(57) initializes((24, 40)) %0) unnamed_addr #4 align 2 {
  %2 = getelementptr inbounds nuw i8, ptr %0, i64 8
  %3 = load i8, ptr %2, align 8, !tbaa !14, !range !12, !noundef !13
  %4 = trunc nuw i8 %3 to i1
  br i1 %4, label %5, label %10

5:                                                ; preds = %1
  %6 = getelementptr inbounds nuw i8, ptr %0, i64 16
  %7 = load ptr, ptr %6, align 8, !tbaa !16
  %8 = icmp eq ptr %7, null
  br i1 %8, label %10, label %9

9:                                                ; preds = %5
  tail call void @_ZdaPv(ptr noundef nonnull %7) #23
  br label %10

10:                                               ; preds = %5, %9, %1
  %11 = getelementptr inbounds nuw i8, ptr %0, i64 16
  store i8 0, ptr %2, align 8, !tbaa !14
  tail call void @llvm.memset.p0.i64(ptr noundef nonnull align 8 dereferenceable(24) %11, i8 0, i64 24, i1 false)
  ret void
}